; Function Attrs: mustprogress uwtable
define internal fastcc void @_ZN11OpenImageIO6v3_1_0L9channels_IsEEbRNS0_8ImageBufERKS2_NS0_4spanIKiLm18446744073709551615EEENS6_IKfLm18446744073709551615EEENS0_3ROIEi(ptr noundef nonnull align 8 dereferenceable(16) %0, ptr noundef nonnull align 8 dereferenceable(16) %1, ptr %2, i64 %3, ptr %4, i64 %5, ptr noundef readonly byval(%"struct.OpenImageIO::v3_1_0::ROI") align 8 captures(none) %6, i32 noundef %7) unnamed_addr #5 personality ptr @__gxx_personality_v0 {
  %9 = alloca %"class.OpenImageIO::v3_1_0::span", align 8
  %10 = alloca %"class.OpenImageIO::v3_1_0::span.0", align 8
  %11 = alloca %"class.OpenImageIO::v3_1_0::paropt", align 8
  %12 = alloca %"class.std::function", align 8
  store ptr %2, ptr %9, align 8
  %13 = getelementptr inbounds nuw i8, ptr %9, i64 8
  store i64 %3, ptr %13, align 8
  store ptr %4, ptr %10, align 8
  %14 = getelementptr inbounds nuw i8, ptr %10, i64 8
  store i64 %5, ptr %14, align 8
  store i32 %7, ptr %11, align 8, !tbaa !99
  %15 = getelementptr inbounds nuw i8, ptr %11, i64 4
  store i16 0, ptr %15, align 4, !tbaa !104
  %16 = getelementptr inbounds nuw i8, ptr %11, i64 6
  store i16 1, ptr %16, align 2, !tbaa !105
  %17 = getelementptr inbounds nuw i8, ptr %11, i64 8
  store i64 1024, ptr %17, align 8, !tbaa !106
  %18 = getelementptr inbounds nuw i8, ptr %11, i64 16
  store ptr null, ptr %18, align 8, !tbaa !107
  %19 = getelementptr inbounds nuw i8, ptr %11, i64 24
  store i8 0, ptr %19, align 8, !tbaa !108
  %20 = getelementptr inbounds nuw i8, ptr %12, i64 16
  %21 = getelementptr inbounds nuw i8, ptr %12, i64 24
  %22 = getelementptr inbounds nuw i8, ptr %12, i64 8
  store i64 0, ptr %22, align 8
  %23 = tail call noalias noundef nonnull dereferenceable(32) ptr @_Znwm(i64 noundef 32) #29
  store ptr %1, ptr %23, align 16, !tbaa !109
  %.sroa.5.0..sroa_idx = getelementptr inbounds nuw i8, ptr %23, i64 8
  store ptr %0, ptr %.sroa.5.0..sroa_idx, align 8, !tbaa !109
  %.sroa.6.0..sroa_idx = getelementptr inbounds nuw i8, ptr %23, i64 16
  store ptr %9, ptr %.sroa.6.0..sroa_idx, align 16, !tbaa !111
  %.sroa.7.0..sroa_idx = getelementptr inbounds nuw i8, ptr %23, i64 24
  store ptr %10, ptr %.sroa.7.0..sroa_idx, align 8, !tbaa !113
  store ptr %23, ptr %12, align 8, !tbaa !115
  store ptr @_ZNSt17_Function_handlerIFvN11OpenImageIO6v3_1_03ROIEEZNS1_L9channels_IsEEbRNS1_8ImageBufERKS5_NS1_4spanIKiLm18446744073709551615EEENS9_IKfLm18446744073709551615EEES2_iEUlS2_E_E9_M_invokeERKSt9_Any_dataOS2_, ptr %21, align 8, !tbaa !116
  store ptr @_ZNSt17_Function_handlerIFvN11OpenImageIO6v3_1_03ROIEEZNS1_L9channels_IsEEbRNS1_8ImageBufERKS5_NS1_4spanIKiLm18446744073709551615EEENS9_IKfLm18446744073709551615EEES2_iEUlS2_E_E10_M_managerERSt9_Any_dataRKSG_St18_Manager_operation, ptr %20, align 8, !tbaa !119
  invoke void @_ZN11OpenImageIO6v3_1_012ImageBufAlgo14parallel_imageENS0_3ROIENS0_6paroptESt8functionIFvS2_EE(ptr noundef nonnull byval(%"struct.OpenImageIO::v3_1_0::ROI") align 8 %6, ptr noundef nonnull byval(%"class.OpenImageIO::v3_1_0::paropt") align 8 %11, ptr noundef nonnull %12)
          to label %24 unwind label %31

24:                                               ; preds = %8
  %25 = load ptr, ptr %20, align 8, !tbaa !119
  %.not.i = icmp eq ptr %25, null
  br i1 %.not.i, label %_ZNSt14_Function_baseD2Ev.exit, label %26

26:                                               ; preds = %24
  %27 = invoke noundef zeroext i1 %25(ptr noundef nonnull align 8 dereferenceable(32) %12, ptr noundef nonnull align 8 dereferenceable(32) %12, i32 noundef 3)
          to label %_ZNSt14_Function_baseD2Ev.exit unwind label %28

28:                                               ; preds = %26
  %29 = landingpad { ptr, i32 }
          catch ptr null
  %30 = extractvalue { ptr, i32 } %29, 0
  call void @__clang_call_terminate(ptr %30) #30
  unreachable

_ZNSt14_Function_baseD2Ev.exit:                   ; preds = %24, %26
  ret void

31:                                               ; preds = %8
  %32 = landingpad { ptr, i32 }
          cleanup
  %33 = load ptr, ptr %20, align 8, !tbaa !119
  %.not.i4 = icmp eq ptr %33, null
  br i1 %.not.i4, label %_ZNSt14_Function_baseD2Ev.exit5, label %34

34:                                               ; preds = %31
  %35 = invoke noundef zeroext i1 %33(ptr noundef nonnull align 8 dereferenceable(32) %12, ptr noundef nonnull align 8 dereferenceable(32) %12, i32 noundef 3)
          to label %_ZNSt14_Function_baseD2Ev.exit5 unwind label %36

36:                                               ; preds = %34
  %37 = landingpad { ptr, i32 }
          catch ptr null
  %38 = extractvalue { ptr, i32 } %37, 0
  call void @__clang_call_terminate(ptr %38) #30
  unreachable

_ZNSt14_Function_baseD2Ev.exit5:                  ; preds = %31, %34
  resume { ptr, i32 } %32
}